; Function Attrs: mustprogress uwtable
define noundef nonnull ptr @_ZN5faiss26ProgressiveDimIndexFactoryclEi(ptr nocapture nonnull readnone align 8 %0, i32 noundef %1) unnamed_addr #0 align 2 personality ptr @__gxx_personality_v0 {
  %3 = tail call noalias noundef nonnull dereferenceable(96) ptr @_Znwm(i64 noundef 96) #22
  %4 = sext i32 %1 to i64
  invoke void @_ZN5faiss9IndexFlatC2ElNS_10MetricTypeE(ptr noundef nonnull align 8 dereferenceable(72) %3, i64 noundef %4, i32 noundef 1)
          to label %5 unwind label %7

5:                                                ; preds = %2
  store ptr getelementptr inbounds ({ [25 x ptr] }, ptr @_ZTVN5faiss11IndexFlatL2E, i64 0, i32 0, i64 2), ptr %3, align 8
  %6 = getelementptr inbounds i8, ptr %3, i64 72
  tail call void @llvm.memset.p0.i64(ptr noundef nonnull align 8 dereferenceable(24) %6, i8 0, i64 24, i1 false)
  ret ptr %3

7:                                                ; preds = %2
  %8 = landingpad { ptr, i32 }
          cleanup
  tail call void @_ZdlPv(ptr noundef nonnull %3) #21
  resume { ptr, i32 } %8
}